; Function Attrs: mustprogress nofree norecurse nosync nounwind willreturn memory(argmem: read) uwtable
define noundef float @_Z15grid_jump_limitPK17gmx_domdec_comm_tfi(ptr noundef readonly captures(none) %0, float noundef %1, i32 noundef %2) local_unnamed_addr #0 {
  %4 = getelementptr inbounds nuw i8, ptr %0, i64 604
  %5 = load float, ptr %4, align 4, !tbaa !4
  %6 = getelementptr inbounds nuw i8, ptr %0, i64 608
  %7 = load i8, ptr %6, align 8, !tbaa !105, !range !106, !noundef !107
  %8 = trunc nuw i8 %7 to i1
  br i1 %8, label %32, label %9

9:                                                ; preds = %3
  %10 = getelementptr inbounds nuw i8, ptr %0, i64 609
  %11 = load i8, ptr %10, align 1, !tbaa !108, !range !106, !noundef !107
  %12 = trunc nuw i8 %11 to i1
  br i1 %12, label %13, label %17

13:                                               ; preds = %9
  %14 = getelementptr inbounds nuw i8, ptr %0, i64 612
  %15 = load float, ptr %14, align 4, !tbaa !109
  %16 = fcmp olt float %1, %15
  %.sroa.speculated9 = select i1 %16, float %15, float %1
  br label %17

17:                                               ; preds = %13, %9
  %.0 = phi float [ %.sroa.speculated9, %13 ], [ %1, %9 ]
  %18 = getelementptr inbounds nuw i8, ptr %0, i64 880
  %19 = sext i32 %2 to i64
  %20 = getelementptr inbounds nuw [3 x %struct.gmx_domdec_comm_dim_t], ptr %18, i64 0, i64 %19
  %21 = getelementptr inbounds nuw i8, ptr %20, i64 8
  %22 = load ptr, ptr %21, align 8, !tbaa !110
  %23 = load ptr, ptr %20, align 8, !tbaa !113
  %24 = ptrtoint ptr %22 to i64
  %25 = ptrtoint ptr %23 to i64
  %26 = sub i64 %24, %25
  %27 = sdiv exact i64 %26, 104
  %28 = trunc i64 %27 to i32
  %29 = sitofp i32 %28 to float
  %30 = fdiv float %.0, %29
  %31 = fcmp olt float %5, %30
  %.sroa.speculated = select i1 %31, float %30, float %5
  br label %32

32:                                               ; preds = %17, %3
  %.011 = phi float [ %5, %3 ], [ %.sroa.speculated, %17 ]
  ret float %.011
}